target datalayout = "e-m:e-p270:32:32-p271:32:32-p272:64:64-i64:64-i128:128-f80:128-n8:16:32:64-S128"
target triple = "x86_64-pc-linux-gnu"

%"class.std::__cxx11::list.19" = type { %"class.std::__cxx11::_List_base.20" }
%"class.std::__cxx11::_List_base.20" = type { %"struct.std::__cxx11::_List_base<int, std::allocator<int>>::_List_impl" }
%"struct.std::__cxx11::_List_base<int, std::allocator<int>>::_List_impl" = type { %"struct.std::__detail::_List_node_header" }
%"struct.std::__detail::_List_node_header" = type { %"struct.std::__detail::_List_node_base", i64 }
%"struct.std::__detail::_List_node_base" = type { ptr, ptr }
%class.AmbientOcclusionPlugin = type <{ %class.QObject, %class.FilterPlugin.base, %"class.std::vector.24", %"class.vcg::Point3", i32, i32, i32, i32, i32, ptr, ptr, i32, i32, i32, i32, i32, i8, i8, i8, i8, i32, i32, i8, [7 x i8], %class.MeshLabPlugin, %class.MeshLabPluginLogger }>
%class.QObject = type { ptr, %class.QScopedPointer }
%class.QScopedPointer = type { ptr }
%class.FilterPlugin.base = type { ptr, ptr, %"class.std::__cxx11::list", %"class.std::__cxx11::list.19" }
%"class.std::__cxx11::list" = type { %"class.std::__cxx11::_List_base" }
%"class.std::__cxx11::_List_base" = type { %"struct.std::__cxx11::_List_base<QAction *, std::allocator<QAction *>>::_List_impl" }
%"struct.std::__cxx11::_List_base<QAction *, std::allocator<QAction *>>::_List_impl" = type { %"struct.std::__detail::_List_node_header" }
%"class.std::vector.24" = type { %"struct.std::_Vector_base.25" }
%"struct.std::_Vector_base.25" = type { %"struct.std::_Vector_base<vcg::Point3<float>, std::allocator<vcg::Point3<float>>>::_Vector_impl" }
%"struct.std::_Vector_base<vcg::Point3<float>, std::allocator<vcg::Point3<float>>>::_Vector_impl" = type { %"struct.std::_Vector_base<vcg::Point3<float>, std::allocator<vcg::Point3<float>>>::_Vector_impl_data" }
%"struct.std::_Vector_base<vcg::Point3<float>, std::allocator<vcg::Point3<float>>>::_Vector_impl_data" = type { ptr, ptr, ptr }
%"class.vcg::Point3" = type { [3 x float] }
%class.MeshLabPlugin = type { ptr, i8, %class.QFileInfo }
%class.QFileInfo = type { %class.QSharedDataPointer }
%class.QSharedDataPointer = type { ptr }
%class.MeshLabPluginLogger = type { ptr, ptr }

@__glewUseProgram = external global ptr, align 8
@_ZL6shdrID = internal global i32 0, align 4
@__glewActiveTexture = external global ptr, align 8
@__glewUniform1i = external global ptr, align 8
@__glewGetUniformLocation = external global ptr, align 8
@.str.96 = private unnamed_addr constant [9 x i8] c"dTexture\00", align 1
@.str.97 = private unnamed_addr constant [9 x i8] c"vTexture\00", align 1
@.str.98 = private unnamed_addr constant [9 x i8] c"nTexture\00", align 1
@__glewUniform3f = external global ptr, align 8
@.str.99 = private unnamed_addr constant [14 x i8] c"viewDirection\00", align 1
@__glewUniformMatrix4fv = external global ptr, align 8
@.str.100 = private unnamed_addr constant [11 x i8] c"mvprMatrix\00", align 1
@__glewUniform1f = external global ptr, align 8
@.str.101 = private unnamed_addr constant [12 x i8] c"numTexPages\00", align 1
@.str.102 = private unnamed_addr constant [8 x i8] c"texSize\00", align 1
@.str.103 = private unnamed_addr constant [10 x i8] c"viewpSize\00", align 1

; Function Attrs: mustprogress nounwind uwtable
define linkonce_odr noundef nonnull align 4 dereferenceable(4) ptr @_ZN3vcg6Point3IfE1ZEv(ptr noundef nonnull align 4 dereferenceable(12) %0) #4 comdat align 2 {
  %2 = alloca ptr, align 8
  store ptr %0, ptr %2, align 8
  %3 = load ptr, ptr %2, align 8
  %4 = getelementptr inbounds %"class.vcg::Point3", ptr %3, i32 0, i32 0
  %5 = getelementptr inbounds [3 x float], ptr %4, i64 0, i64 2
  ret ptr %5
}

; Function Attrs: mustprogress nounwind uwtable
define linkonce_odr noundef nonnull align 4 dereferenceable(4) ptr @_ZN3vcg6Point3IfE1YEv(ptr noundef nonnull align 4 dereferenceable(12) %0) #4 comdat align 2 {
  %2 = alloca ptr, align 8
  store ptr %0, ptr %2, align 8
  %3 = load ptr, ptr %2, align 8
  %4 = getelementptr inbounds %"class.vcg::Point3", ptr %3, i32 0, i32 0
  %5 = getelementptr inbounds [3 x float], ptr %4, i64 0, i64 1
  ret ptr %5
}

; Function Attrs: mustprogress nounwind uwtable
define linkonce_odr noundef nonnull align 4 dereferenceable(4) ptr @_ZN3vcg6Point3IfE1XEv(ptr noundef nonnull align 4 dereferenceable(12) %0) #4 comdat align 2 {
  %2 = alloca ptr, align 8
  store ptr %0, ptr %2, align 8
  %3 = load ptr, ptr %2, align 8
  %4 = getelementptr inbounds %"class.vcg::Point3", ptr %3, i32 0, i32 0
  %5 = getelementptr inbounds [3 x float], ptr %4, i64 0, i64 0
  ret ptr %5
}

; Function Attrs: mustprogress uwtable
define void @_ZN22AmbientOcclusionPlugin19generateOcclusionHWEv(ptr noundef nonnull align 8 dereferenceable(185) %0) #5 align 2 {
  %2 = alloca ptr, align 8
  %3 = alloca [16 x float], align 16
  store ptr %0, ptr %2, align 8
  %4 = load ptr, ptr %2, align 8
  %5 = getelementptr inbounds [16 x float], ptr %3, i64 0, i64 0
  call void @glGetFloatv(i32 noundef 2982, ptr noundef %5)
  call void @glMatrixMode(i32 noundef 5889)
  %6 = getelementptr inbounds [16 x float], ptr %3, i64 0, i64 0
  call void @glMultMatrixf(ptr noundef %6)
  %7 = getelementptr inbounds [16 x float], ptr %3, i64 0, i64 0
  call void @glGetFloatv(i32 noundef 2983, ptr noundef %7)
  call void @glMatrixMode(i32 noundef 5889)
  call void @glLoadIdentity()
  call void @glOrtho(double noundef -1.000000e+00, double noundef 1.000000e+00, double noundef -1.000000e+00, double noundef 1.000000e+00, double noundef -1.000000e+00, double noundef 1.000000e+00)
  call void @glMatrixMode(i32 noundef 5888)
  call void @glLoadIdentity()
  call void @glClear(i32 noundef 256)
  call void @glDisable(i32 noundef 2929)
  %8 = load ptr, ptr @__glewUseProgram, align 8
  %9 = load i32, ptr @_ZL6shdrID, align 4
  call void %8(i32 noundef %9)
  %10 = load ptr, ptr @__glewActiveTexture, align 8
  call void %10(i32 noundef 33984)
  %11 = getelementptr inbounds %class.AmbientOcclusionPlugin, ptr %4, i32 0, i32 6
  %12 = load i32, ptr %11, align 4
  call void @glBindTexture(i32 noundef 3553, i32 noundef %12)
  %13 = load ptr, ptr @__glewUniform1i, align 8
  %14 = load ptr, ptr @__glewGetUniformLocation, align 8
  %15 = load i32, ptr @_ZL6shdrID, align 4
  %16 = call i32 %14(i32 noundef %15, ptr noundef @.str.96)
  call void %13(i32 noundef %16, i32 noundef 0)
  %17 = load ptr, ptr @__glewActiveTexture, align 8
  call void %17(i32 noundef 33985)
  %18 = getelementptr inbounds %class.AmbientOcclusionPlugin, ptr %4, i32 0, i32 7
  %19 = load i32, ptr %18, align 8
  call void @glBindTexture(i32 noundef 32879, i32 noundef %19)
  %20 = load ptr, ptr @__glewUniform1i, align 8
  %21 = load ptr, ptr @__glewGetUniformLocation, align 8
  %22 = load i32, ptr @_ZL6shdrID, align 4
  %23 = call i32 %21(i32 noundef %22, ptr noundef @.str.97)
  call void %20(i32 noundef %23, i32 noundef 1)
  %24 = load ptr, ptr @__glewActiveTexture, align 8
  call void %24(i32 noundef 33986)
  %25 = getelementptr inbounds %class.AmbientOcclusionPlugin, ptr %4, i32 0, i32 8
  %26 = load i32, ptr %25, align 4
  call void @glBindTexture(i32 noundef 32879, i32 noundef %26)
  %27 = load ptr, ptr @__glewUniform1i, align 8
  %28 = load ptr, ptr @__glewGetUniformLocation, align 8
  %29 = load i32, ptr @_ZL6shdrID, align 4
  %30 = call i32 %28(i32 noundef %29, ptr noundef @.str.98)
  call void %27(i32 noundef %30, i32 noundef 2)
  %31 = load ptr, ptr @__glewUniform3f, align 8
  %32 = load ptr, ptr @__glewGetUniformLocation, align 8
  %33 = load i32, ptr @_ZL6shdrID, align 4
  %34 = call i32 %32(i32 noundef %33, ptr noundef @.str.99)
  %35 = getelementptr inbounds %class.AmbientOcclusionPlugin, ptr %4, i32 0, i32 3
  %36 = call noundef nonnull align 4 dereferenceable(4) ptr @_ZN3vcg6Point3IfE1XEv(ptr noundef nonnull align 4 dereferenceable(12) %35)
  %37 = load float, ptr %36, align 4
  %38 = getelementptr inbounds %class.AmbientOcclusionPlugin, ptr %4, i32 0, i32 3
  %39 = call noundef nonnull align 4 dereferenceable(4) ptr @_ZN3vcg6Point3IfE1YEv(ptr noundef nonnull align 4 dereferenceable(12) %38)
  %40 = load float, ptr %39, align 4
  %41 = getelementptr inbounds %class.AmbientOcclusionPlugin, ptr %4, i32 0, i32 3
  %42 = call noundef nonnull align 4 dereferenceable(4) ptr @_ZN3vcg6Point3IfE1ZEv(ptr noundef nonnull align 4 dereferenceable(12) %41)
  %43 = load float, ptr %42, align 4
  call void %31(i32 noundef %34, float noundef %37, float noundef %40, float noundef %43)
  %44 = load ptr, ptr @__glewUniformMatrix4fv, align 8
  %45 = load ptr, ptr @__glewGetUniformLocation, align 8
  %46 = load i32, ptr @_ZL6shdrID, align 4
  %47 = call i32 %45(i32 noundef %46, ptr noundef @.str.100)
  %48 = getelementptr inbounds [16 x float], ptr %3, i64 0, i64 0
  call void %44(i32 noundef %47, i32 noundef 1, i8 noundef zeroext 0, ptr noundef %48)
  %49 = load ptr, ptr @__glewUniform1f, align 8
  %50 = load ptr, ptr @__glewGetUniformLocation, align 8
  %51 = load i32, ptr @_ZL6shdrID, align 4
  %52 = call i32 %50(i32 noundef %51, ptr noundef @.str.101)
  %53 = getelementptr inbounds %class.AmbientOcclusionPlugin, ptr %4, i32 0, i32 15
  %54 = load i32, ptr %53, align 8
  %55 = uitofp i32 %54 to float
  call void %49(i32 noundef %52, float noundef %55)
  %56 = load ptr, ptr @__glewUniform1f, align 8
  %57 = load ptr, ptr @__glewGetUniformLocation, align 8
  %58 = load i32, ptr @_ZL6shdrID, align 4
  %59 = call i32 %57(i32 noundef %58, ptr noundef @.str.102)
  %60 = getelementptr inbounds %class.AmbientOcclusionPlugin, ptr %4, i32 0, i32 20
  %61 = load i32, ptr %60, align 8
  %62 = uitofp i32 %61 to float
  call void %56(i32 noundef %59, float noundef %62)
  %63 = load ptr, ptr @__glewUniform1f, align 8
  %64 = load ptr, ptr @__glewGetUniformLocation, align 8
  %65 = load i32, ptr @_ZL6shdrID, align 4
  %66 = call i32 %64(i32 noundef %65, ptr noundef @.str.103)
  %67 = getelementptr inbounds %class.AmbientOcclusionPlugin, ptr %4, i32 0, i32 21
  %68 = load i32, ptr %67, align 4
  %69 = uitofp i32 %68 to float
  call void %63(i32 noundef %66, float noundef %69)
  call void @glBegin(i32 noundef 7)
  call void @glVertex3f(float noundef -1.000000e+00, float noundef -1.000000e+00, float noundef 0.000000e+00)
  call void @glVertex3f(float noundef 1.000000e+00, float noundef -1.000000e+00, float noundef 0.000000e+00)
  call void @glVertex3f(float noundef 1.000000e+00, float noundef 1.000000e+00, float noundef 0.000000e+00)
  call void @glVertex3f(float noundef -1.000000e+00, float noundef 1.000000e+00, float noundef 0.000000e+00)
  call void @glEnd()
  %70 = load ptr, ptr @__glewUseProgram, align 8
  call void %70(i32 noundef 0)
  ret void
}