; Function Attrs: mustprogress uwtable
define void @_ZN22AmbientOcclusionPlugin19generateOcclusionHWEv(ptr nocapture noundef nonnull readonly align 8 dereferenceable(185) %0) local_unnamed_addr #9 align 2 {
  %2 = alloca [16 x float], align 16
  call void @glGetFloatv(i32 noundef 2982, ptr noundef nonnull %2)
  call void @glMatrixMode(i32 noundef 5889)
  call void @glMultMatrixf(ptr noundef nonnull %2)
  call void @glGetFloatv(i32 noundef 2983, ptr noundef nonnull %2)
  call void @glMatrixMode(i32 noundef 5889)
  call void @glLoadIdentity()
  call void @glOrtho(double noundef -1.000000e+00, double noundef 1.000000e+00, double noundef -1.000000e+00, double noundef 1.000000e+00, double noundef -1.000000e+00, double noundef 1.000000e+00)
  call void @glMatrixMode(i32 noundef 5888)
  call void @glLoadIdentity()
  call void @glClear(i32 noundef 256)
  call void @glDisable(i32 noundef 2929)
  %3 = load ptr, ptr @__glewUseProgram, align 8
  %4 = load i32, ptr @_ZL6shdrID, align 4
  call void %3(i32 noundef %4)
  %5 = load ptr, ptr @__glewActiveTexture, align 8
  call void %5(i32 noundef 33984)
  %6 = getelementptr inbounds i8, ptr %0, i64 124
  %7 = load i32, ptr %6, align 4
  call void @glBindTexture(i32 noundef 3553, i32 noundef %7)
  %8 = load ptr, ptr @__glewUniform1i, align 8
  %9 = load ptr, ptr @__glewGetUniformLocation, align 8
  %10 = load i32, ptr @_ZL6shdrID, align 4
  %11 = call i32 %9(i32 noundef %10, ptr noundef nonnull @.str.96)
  call void %8(i32 noundef %11, i32 noundef 0)
  %12 = load ptr, ptr @__glewActiveTexture, align 8
  call void %12(i32 noundef 33985)
  %13 = getelementptr inbounds i8, ptr %0, i64 128
  %14 = load i32, ptr %13, align 8
  call void @glBindTexture(i32 noundef 32879, i32 noundef %14)
  %15 = load ptr, ptr @__glewUniform1i, align 8
  %16 = load ptr, ptr @__glewGetUniformLocation, align 8
  %17 = load i32, ptr @_ZL6shdrID, align 4
  %18 = call i32 %16(i32 noundef %17, ptr noundef nonnull @.str.97)
  call void %15(i32 noundef %18, i32 noundef 1)
  %19 = load ptr, ptr @__glewActiveTexture, align 8
  call void %19(i32 noundef 33986)
  %20 = getelementptr inbounds i8, ptr %0, i64 132
  %21 = load i32, ptr %20, align 4
  call void @glBindTexture(i32 noundef 32879, i32 noundef %21)
  %22 = load ptr, ptr @__glewUniform1i, align 8
  %23 = load ptr, ptr @__glewGetUniformLocation, align 8
  %24 = load i32, ptr @_ZL6shdrID, align 4
  %25 = call i32 %23(i32 noundef %24, ptr noundef nonnull @.str.98)
  call void %22(i32 noundef %25, i32 noundef 2)
  %26 = load ptr, ptr @__glewUniform3f, align 8
  %27 = load ptr, ptr @__glewGetUniformLocation, align 8
  %28 = load i32, ptr @_ZL6shdrID, align 4
  %29 = call i32 %27(i32 noundef %28, ptr noundef nonnull @.str.99)
  %30 = getelementptr inbounds i8, ptr %0, i64 104
  %31 = load float, ptr %30, align 8
  %32 = getelementptr inbounds i8, ptr %0, i64 108
  %33 = load float, ptr %32, align 4
  %34 = getelementptr inbounds i8, ptr %0, i64 112
  %35 = load float, ptr %34, align 8
  call void %26(i32 noundef %29, float noundef %31, float noundef %33, float noundef %35)
  %36 = load ptr, ptr @__glewUniformMatrix4fv, align 8
  %37 = load ptr, ptr @__glewGetUniformLocation, align 8
  %38 = load i32, ptr @_ZL6shdrID, align 4
  %39 = call i32 %37(i32 noundef %38, ptr noundef nonnull @.str.100)
  call void %36(i32 noundef %39, i32 noundef 1, i8 noundef zeroext 0, ptr noundef nonnull %2)
  %40 = load ptr, ptr @__glewUniform1f, align 8
  %41 = load ptr, ptr @__glewGetUniformLocation, align 8
  %42 = load i32, ptr @_ZL6shdrID, align 4
  %43 = call i32 %41(i32 noundef %42, ptr noundef nonnull @.str.101)
  %44 = getelementptr inbounds i8, ptr %0, i64 168
  %45 = load i32, ptr %44, align 8
  %46 = uitofp i32 %45 to float
  call void %40(i32 noundef %43, float noundef %46)
  %47 = load ptr, ptr @__glewUniform1f, align 8
  %48 = load ptr, ptr @__glewGetUniformLocation, align 8
  %49 = load i32, ptr @_ZL6shdrID, align 4
  %50 = call i32 %48(i32 noundef %49, ptr noundef nonnull @.str.102)
  %51 = getelementptr inbounds i8, ptr %0, i64 176
  %52 = load i32, ptr %51, align 8
  %53 = uitofp i32 %52 to float
  call void %47(i32 noundef %50, float noundef %53)
  %54 = load ptr, ptr @__glewUniform1f, align 8
  %55 = load ptr, ptr @__glewGetUniformLocation, align 8
  %56 = load i32, ptr @_ZL6shdrID, align 4
  %57 = call i32 %55(i32 noundef %56, ptr noundef nonnull @.str.103)
  %58 = getelementptr inbounds i8, ptr %0, i64 180
  %59 = load i32, ptr %58, align 4
  %60 = uitofp i32 %59 to float
  call void %54(i32 noundef %57, float noundef %60)
  call void @glBegin(i32 noundef 7)
  call void @glVertex3f(float noundef -1.000000e+00, float noundef -1.000000e+00, float noundef 0.000000e+00)
  call void @glVertex3f(float noundef 1.000000e+00, float noundef -1.000000e+00, float noundef 0.000000e+00)
  call void @glVertex3f(float noundef 1.000000e+00, float noundef 1.000000e+00, float noundef 0.000000e+00)
  call void @glVertex3f(float noundef -1.000000e+00, float noundef 1.000000e+00, float noundef 0.000000e+00)
  call void @glEnd()
  %61 = load ptr, ptr @__glewUseProgram, align 8
  call void %61(i32 noundef 0)
  ret void
}